(idatabase
Database
p0
(dp1
S'pours'
p2
(dp3
S'1'
p4
(idatabase
PourData
p5
(dp6
S'subpours'
p7
(lp8
V1
p9
asS'name'
p10
Vpour
p11
sbsS'2'
p12
(idatabase
PourData
p13
(dp14
g7
(lp15
V2
p16
asg10
Vpour2
p17
sbssS'curr_subpour'
p18
I3
sg7
(dp19
g4
(idatabase
SubpourData
p20
(dp21
S'radius_rate'
p22
F0.1
sS'r0'
p23
F0.0
sg10
Vsubpour
p24
sS'angle_rate'
p25
F180.0
sS'post_center'
p26
I00
sS'water'
p27
I00
sS'radius'
p28
F1.0
sS'nrots'
p29
I5
sS'duration'
p30
I10
sS'o0'
p31
F0.0
sbsg12
(idatabase
SubpourData
p32
(dp33
g22
F0.1
sg23
F0.0
sg10
Vsubpour2
p34
sg25
F72.0
sg26
I01
sg27
I00
sg28
F1.0
sg29
I1
sg30
I20
sg31
F0.0
sbssS'curr_pour'
p35
I3
sb.